target datalayout = "e-m:e-p270:32:32-p271:32:32-p272:64:64-i64:64-i128:128-f80:128-n8:16:32:64-S128"
target triple = "x86_64-pc-linux-gnu"

@hf_mpeg_descr_data_bcast_bcast_id = internal global i32 0, align 4
@hf_mpeg_descr_data_bcast_component_tag = internal global i32 0, align 4
@hf_mpeg_descr_data_bcast_selector_len = internal global i32 0, align 4
@hf_mpeg_descr_data_bcast_selector_bytes = internal global i32 0, align 4
@hf_mpeg_descr_data_bcast_lang_code = internal global i32 0, align 4
@hf_mpeg_descr_data_bcast_text_len = internal global i32 0, align 4
@hf_mpeg_descr_data_bcast_text = internal global i32 0, align 4

; Function Attrs: null_pointer_is_valid sspstrong uwtable
define internal void @proto_mpeg_descriptor_dissect_data_bcast(ptr noundef %0, i32 noundef %1, ptr noundef %2) #1 {
  %4 = alloca ptr, align 8
  %5 = alloca i32, align 4
  %6 = alloca ptr, align 8
  %7 = alloca i8, align 1
  %8 = alloca i8, align 1
  store ptr %0, ptr %4, align 8
  store i32 %1, ptr %5, align 4
  store ptr %2, ptr %6, align 8
  call void @llvm.lifetime.start.p0(i64 1, ptr %7) #4
  call void @llvm.lifetime.start.p0(i64 1, ptr %8) #4
  %9 = load ptr, ptr %6, align 8
  %10 = load i32, ptr @hf_mpeg_descr_data_bcast_bcast_id, align 4
  %11 = load ptr, ptr %4, align 8
  %12 = load i32, ptr %5, align 4
  %13 = call ptr @proto_tree_add_item(ptr noundef %9, i32 noundef %10, ptr noundef %11, i32 noundef %12, i32 noundef 2, i32 noundef 0)
  %14 = load i32, ptr %5, align 4
  %15 = add i32 %14, 2
  store i32 %15, ptr %5, align 4
  %16 = load ptr, ptr %6, align 8
  %17 = load i32, ptr @hf_mpeg_descr_data_bcast_component_tag, align 4
  %18 = load ptr, ptr %4, align 8
  %19 = load i32, ptr %5, align 4
  %20 = call ptr @proto_tree_add_item(ptr noundef %16, i32 noundef %17, ptr noundef %18, i32 noundef %19, i32 noundef 1, i32 noundef 0)
  %21 = load i32, ptr %5, align 4
  %22 = add i32 %21, 1
  store i32 %22, ptr %5, align 4
  %23 = load ptr, ptr %4, align 8
  %24 = load i32, ptr %5, align 4
  %25 = call zeroext i8 @tvb_get_uint8(ptr noundef %23, i32 noundef %24)
  store i8 %25, ptr %7, align 1
  %26 = load ptr, ptr %6, align 8
  %27 = load i32, ptr @hf_mpeg_descr_data_bcast_selector_len, align 4
  %28 = load ptr, ptr %4, align 8
  %29 = load i32, ptr %5, align 4
  %30 = call ptr @proto_tree_add_item(ptr noundef %26, i32 noundef %27, ptr noundef %28, i32 noundef %29, i32 noundef 1, i32 noundef 0)
  %31 = load i32, ptr %5, align 4
  %32 = add i32 %31, 1
  store i32 %32, ptr %5, align 4
  %33 = load i8, ptr %7, align 1
  %34 = zext i8 %33 to i32
  %35 = icmp sgt i32 %34, 0
  br i1 %35, label %36, label %48

36:                                               ; preds = %3
  %37 = load ptr, ptr %6, align 8
  %38 = load i32, ptr @hf_mpeg_descr_data_bcast_selector_bytes, align 4
  %39 = load ptr, ptr %4, align 8
  %40 = load i32, ptr %5, align 4
  %41 = load i8, ptr %7, align 1
  %42 = zext i8 %41 to i32
  %43 = call ptr @proto_tree_add_item(ptr noundef %37, i32 noundef %38, ptr noundef %39, i32 noundef %40, i32 noundef %42, i32 noundef 0)
  %44 = load i8, ptr %7, align 1
  %45 = zext i8 %44 to i32
  %46 = load i32, ptr %5, align 4
  %47 = add i32 %46, %45
  store i32 %47, ptr %5, align 4
  br label %48

48:                                               ; preds = %36, %3
  %49 = load ptr, ptr %6, align 8
  %50 = load i32, ptr @hf_mpeg_descr_data_bcast_lang_code, align 4
  %51 = load ptr, ptr %4, align 8
  %52 = load i32, ptr %5, align 4
  %53 = call ptr @proto_tree_add_item(ptr noundef %49, i32 noundef %50, ptr noundef %51, i32 noundef %52, i32 noundef 3, i32 noundef 0)
  %54 = load i32, ptr %5, align 4
  %55 = add i32 %54, 3
  store i32 %55, ptr %5, align 4
  %56 = load ptr, ptr %4, align 8
  %57 = load i32, ptr %5, align 4
  %58 = call zeroext i8 @tvb_get_uint8(ptr noundef %56, i32 noundef %57)
  store i8 %58, ptr %8, align 1
  %59 = load ptr, ptr %6, align 8
  %60 = load i32, ptr @hf_mpeg_descr_data_bcast_text_len, align 4
  %61 = load ptr, ptr %4, align 8
  %62 = load i32, ptr %5, align 4
  %63 = call ptr @proto_tree_add_item(ptr noundef %59, i32 noundef %60, ptr noundef %61, i32 noundef %62, i32 noundef 1, i32 noundef 0)
  %64 = load i32, ptr %5, align 4
  %65 = add i32 %64, 1
  store i32 %65, ptr %5, align 4
  %66 = load i8, ptr %8, align 1
  %67 = zext i8 %66 to i32
  %68 = icmp sgt i32 %67, 0
  br i1 %68, label %69, label %77

69:                                               ; preds = %48
  %70 = load ptr, ptr %6, align 8
  %71 = load i32, ptr @hf_mpeg_descr_data_bcast_text, align 4
  %72 = load ptr, ptr %4, align 8
  %73 = load i32, ptr %5, align 4
  %74 = load i8, ptr %8, align 1
  %75 = zext i8 %74 to i32
  %76 = call ptr @proto_tree_add_item(ptr noundef %70, i32 noundef %71, ptr noundef %72, i32 noundef %73, i32 noundef %75, i32 noundef 0)
  br label %77

77:                                               ; preds = %69, %48
  call void @llvm.lifetime.end.p0(i64 1, ptr %8) #4
  call void @llvm.lifetime.end.p0(i64 1, ptr %7) #4
  ret void
}