; Function Attrs: null_pointer_is_valid sspstrong uwtable
define internal fastcc void @proto_mpeg_descriptor_dissect_data_bcast(ptr noundef %0, i32 noundef %1, ptr noundef %2) unnamed_addr #1 {
  %4 = load i32, ptr @hf_mpeg_descr_data_bcast_bcast_id, align 4
  %5 = tail call ptr @proto_tree_add_item(ptr noundef %2, i32 noundef %4, ptr noundef %0, i32 noundef %1, i32 noundef 2, i32 noundef 0)
  %6 = add i32 %1, 2
  %7 = load i32, ptr @hf_mpeg_descr_data_bcast_component_tag, align 4
  %8 = tail call ptr @proto_tree_add_item(ptr noundef %2, i32 noundef %7, ptr noundef %0, i32 noundef %6, i32 noundef 1, i32 noundef 0)
  %9 = add i32 %1, 3
  %10 = tail call zeroext i8 @tvb_get_uint8(ptr noundef %0, i32 noundef %9)
  %11 = load i32, ptr @hf_mpeg_descr_data_bcast_selector_len, align 4
  %12 = tail call ptr @proto_tree_add_item(ptr noundef %2, i32 noundef %11, ptr noundef %0, i32 noundef %9, i32 noundef 1, i32 noundef 0)
  %13 = add i32 %1, 4
  %.not = icmp eq i8 %10, 0
  br i1 %.not, label %19, label %14

14:                                               ; preds = %3
  %15 = zext i8 %10 to i32
  %16 = load i32, ptr @hf_mpeg_descr_data_bcast_selector_bytes, align 4
  %17 = tail call ptr @proto_tree_add_item(ptr noundef %2, i32 noundef %16, ptr noundef %0, i32 noundef %13, i32 noundef %15, i32 noundef 0)
  %18 = add i32 %13, %15
  br label %19

19:                                               ; preds = %14, %3
  %.0 = phi i32 [ %18, %14 ], [ %13, %3 ]
  %20 = load i32, ptr @hf_mpeg_descr_data_bcast_lang_code, align 4
  %21 = tail call ptr @proto_tree_add_item(ptr noundef %2, i32 noundef %20, ptr noundef %0, i32 noundef %.0, i32 noundef 3, i32 noundef 0)
  %22 = add i32 %.0, 3
  %23 = tail call zeroext i8 @tvb_get_uint8(ptr noundef %0, i32 noundef %22)
  %24 = load i32, ptr @hf_mpeg_descr_data_bcast_text_len, align 4
  %25 = tail call ptr @proto_tree_add_item(ptr noundef %2, i32 noundef %24, ptr noundef %0, i32 noundef %22, i32 noundef 1, i32 noundef 0)
  %.not37 = icmp eq i8 %23, 0
  br i1 %.not37, label %31, label %26

26:                                               ; preds = %19
  %27 = zext i8 %23 to i32
  %28 = add i32 %.0, 4
  %29 = load i32, ptr @hf_mpeg_descr_data_bcast_text, align 4
  %30 = tail call ptr @proto_tree_add_item(ptr noundef %2, i32 noundef %29, ptr noundef %0, i32 noundef %28, i32 noundef %27, i32 noundef 0)
  br label %31

31:                                               ; preds = %26, %19
  ret void
}